; Function Attrs: mustprogress uwtable
define internal noundef zeroext i1 @_ZNK9grpc_core12_GLOBAL__N_118XdsResolverFactory10IsValidUriERKNS_3URIE(ptr nocapture nonnull readnone align 8 %this, ptr noundef nonnull align 8 dereferenceable(200) %uri) unnamed_addr #3 align 2 {
entry:
  %path_.i = getelementptr inbounds i8, ptr %uri, i64 64
  %call2 = tail call noundef zeroext i1 @_ZNKSt7__cxx1112basic_stringIcSt11char_traitsIcESaIcEE5emptyEv(ptr noundef nonnull align 8 dereferenceable(32) %path_.i) #28
  br i1 %call2, label %if.then, label %lor.lhs.false

lor.lhs.false:                                    ; preds = %entry
  %call4 = tail call noundef nonnull align 1 dereferenceable(1) ptr @_ZNKSt7__cxx1112basic_stringIcSt11char_traitsIcESaIcEE4backEv(ptr noundef nonnull align 8 dereferenceable(32) %path_.i) #28
  %0 = load i8, ptr %call4, align 1
  %cmp = icmp eq i8 %0, 47
  br i1 %cmp, label %if.then, label %return

if.then:                                          ; preds = %lor.lhs.false, %entry
  tail call void (ptr, i32, i32, ptr, ...) @gpr_log(ptr noundef nonnull @.str.11, i32 noundef 1247, i32 noundef 2, ptr noundef nonnull @.str.20)
  br label %return

return:                                           ; preds = %lor.lhs.false, %if.then
  %retval.0 = phi i1 [ false, %if.then ], [ true, %lor.lhs.false ]
  ret i1 %retval.0
}